; Function Attrs: mustprogress nounwind uwtable
define hidden void @_ZNK10WeakHandle5printEv(ptr nocapture noundef nonnull readonly align 8 dereferenceable(8) %0) local_unnamed_addr #0 align 2 {
  %2 = load ptr, ptr @tty, align 8
  %3 = load ptr, ptr %0, align 8
  %4 = load ptr, ptr @_ZN14AccessInternal15RuntimeDispatchILm593988EP7oopDescLNS_11BarrierTypeE2EE10_load_funcE, align 8
  %5 = tail call noundef ptr %4(ptr noundef %3) #5
  %6 = ptrtoint ptr %5 to i64
  tail call void (ptr, ptr, ...) @_ZN12outputStream5printEPKcz(ptr noundef nonnull align 8 dereferenceable(56) %2, ptr noundef nonnull @.str.5, i64 noundef %6) #5
  ret void
}